; Function Attrs: alwaysinline norecurse nounwind ssp uwtable
define internal void @_ZN6open3d4core15ParallelForCPU_IZNS0_6kernelL20LaunchBinaryEWKernelIaaFvPKvS5_PvEEEvRKNS0_7IndexerERKT1_EUllE_EEvRKNS0_6DeviceElRKT_.omp_outlined(ptr noalias noundef readonly captures(none) %0, ptr noalias readnone captures(none) %1, ptr noundef nonnull readonly align 8 captures(none) dereferenceable(8) %2, ptr noundef nonnull readonly align 8 captures(none) dereferenceable(16) %3) #16 personality ptr @__gxx_personality_v0 {
  %5 = alloca i64, align 8
  %6 = alloca i64, align 8
  %7 = alloca i64, align 8
  %8 = alloca i32, align 4
  %9 = load i64, ptr %2, align 8, !tbaa !11
  %10 = icmp sgt i64 %9, 0
  br i1 %10, label %11, label %89

11:                                               ; preds = %4
  %12 = add nsw i64 %9, -1
  call void @llvm.lifetime.start.p0(i64 8, ptr nonnull %5) #17
  store i64 0, ptr %5, align 8, !tbaa !11
  call void @llvm.lifetime.start.p0(i64 8, ptr nonnull %6) #17
  store i64 %12, ptr %6, align 8, !tbaa !11
  call void @llvm.lifetime.start.p0(i64 8, ptr nonnull %7) #17
  store i64 1, ptr %7, align 8, !tbaa !11
  call void @llvm.lifetime.start.p0(i64 4, ptr nonnull %8) #17
  store i32 0, ptr %8, align 4, !tbaa !40
  %13 = load i32, ptr %0, align 4, !tbaa !40
  call void @__kmpc_for_static_init_8(ptr nonnull @1, i32 %13, i32 34, ptr nonnull %8, ptr nonnull %5, ptr nonnull %6, ptr nonnull %7, i64 1, i64 1)
  %14 = load i64, ptr %6, align 8, !tbaa !11
  %15 = call i64 @llvm.smin.i64(i64 %14, i64 %12)
  store i64 %15, ptr %6, align 8, !tbaa !11
  %16 = load i64, ptr %5, align 8, !tbaa !11
  %.not22 = icmp sgt i64 %16, %15
  br i1 %.not22, label %._crit_edge, label %.lr.ph

.lr.ph:                                           ; preds = %11
  %17 = getelementptr inbounds nuw i8, ptr %3, i64 8
  br label %18

18:                                               ; preds = %.lr.ph, %_ZZN6open3d4core6kernelL20LaunchBinaryEWKernelIaaFvPKvS4_PvEEEvRKNS0_7IndexerERKT1_ENKUllE_clEl.exit
  %.023 = phi i64 [ %16, %.lr.ph ], [ %87, %_ZZN6open3d4core6kernelL20LaunchBinaryEWKernelIaaFvPKvS4_PvEEEvRKNS0_7IndexerERKT1_ENKUllE_clEl.exit ]
  %.val = load ptr, ptr %3, align 8, !tbaa !1280
  %.val13 = load ptr, ptr %17, align 8, !tbaa !1282
  %19 = load i64, ptr %.val, align 8
  %.not.i.i = icmp sgt i64 %19, 0
  br i1 %.not.i.i, label %20, label %_ZNK6open3d4core7Indexer11GetInputPtrIaEEPT_ll.exit13.i

20:                                               ; preds = %18
  %21 = getelementptr inbounds nuw i8, ptr %.val, i64 16
  %22 = icmp slt i64 %.023, 0
  br i1 %22, label %_ZNK6open3d4core7Indexer12GetOutputPtrIaEEPT_l.exit.i, label %23

23:                                               ; preds = %20
  %24 = getelementptr inbounds nuw i8, ptr %.val, i64 744
  %25 = load i8, ptr %24, align 1, !tbaa !75, !range !77, !noundef !78
  %26 = trunc nuw i8 %25 to i1
  br i1 %26, label %_ZNK6open3d4core7Indexer11GetInputPtrIaEEPT_ll.exit.i.thread, label %.preheader.i.i.i

.preheader.i.i.i:                                 ; preds = %23
  %27 = getelementptr inbounds nuw i8, ptr %.val, i64 832
  %28 = load i64, ptr %27, align 8, !tbaa !85
  %29 = icmp sgt i64 %28, 0
  br i1 %29, label %.lr.ph.i.i.i, label %_ZNK6open3d4core7Indexer11GetInputPtrIaEEPT_ll.exit.i.thread

.lr.ph.i.i.i:                                     ; preds = %.preheader.i.i.i
  %30 = getelementptr inbounds nuw i8, ptr %.val, i64 792
  %31 = getelementptr inbounds nuw i8, ptr %.val, i64 80
  br label %32

32:                                               ; preds = %32, %.lr.ph.i.i.i
  %.022.i.i.i = phi i64 [ 0, %.lr.ph.i.i.i ], [ %41, %32 ]
  %.01621.i.i.i = phi i64 [ 0, %.lr.ph.i.i.i ], [ %39, %32 ]
  %.01720.i.i.i = phi i64 [ %.023, %.lr.ph.i.i.i ], [ %40, %32 ]
  %33 = getelementptr inbounds nuw [5 x i64], ptr %30, i64 0, i64 %.022.i.i.i
  %34 = load i64, ptr %33, align 8, !tbaa !11
  %35 = sdiv i64 %.01720.i.i.i, %34
  %36 = getelementptr inbounds nuw [5 x i64], ptr %31, i64 0, i64 %.022.i.i.i
  %37 = load i64, ptr %36, align 8, !tbaa !11
  %38 = mul nsw i64 %37, %35
  %39 = add nsw i64 %38, %.01621.i.i.i
  %40 = srem i64 %.01720.i.i.i, %34
  %41 = add nuw nsw i64 %.022.i.i.i, 1
  %exitcond.not.i.i.i = icmp eq i64 %41, %28
  br i1 %exitcond.not.i.i.i, label %_ZNK6open3d4core7Indexer11GetInputPtrIaEEPT_ll.exit.i.thread, label %32, !llvm.loop !747

_ZNK6open3d4core7Indexer11GetInputPtrIaEEPT_ll.exit.i.thread: ; preds = %32, %23, %.preheader.i.i.i
  %.016.lcssa.i.sink.i.i = phi i64 [ %.023, %23 ], [ 0, %.preheader.i.i.i ], [ %39, %32 ]
  %42 = load ptr, ptr %21, align 8, !tbaa !88
  %43 = getelementptr inbounds i8, ptr %42, i64 %.016.lcssa.i.sink.i.i
  %.not.i3.not.i15 = icmp eq i64 %19, 1
  br i1 %.not.i3.not.i15, label %_ZNK6open3d4core7Indexer11GetInputPtrIaEEPT_ll.exit13.i.thread, label %44

44:                                               ; preds = %_ZNK6open3d4core7Indexer11GetInputPtrIaEEPT_ll.exit.i.thread
  %45 = getelementptr inbounds nuw i8, ptr %.val, i64 120
  %46 = getelementptr inbounds nuw i8, ptr %.val, i64 745
  %47 = load i8, ptr %46, align 1, !tbaa !75, !range !77, !noundef !78
  %48 = trunc nuw i8 %47 to i1
  br i1 %48, label %_ZNK6open3d4core7Indexer11GetInputPtrIaEEPT_ll.exit13.thread3.i, label %.preheader.i.i5.i

.preheader.i.i5.i:                                ; preds = %44
  %49 = getelementptr inbounds nuw i8, ptr %.val, i64 832
  %50 = load i64, ptr %49, align 8, !tbaa !85
  %51 = icmp sgt i64 %50, 0
  br i1 %51, label %.lr.ph.i.i8.i, label %_ZNK6open3d4core7Indexer11GetInputPtrIaEEPT_ll.exit13.thread3.i

.lr.ph.i.i8.i:                                    ; preds = %.preheader.i.i5.i
  %52 = getelementptr inbounds nuw i8, ptr %.val, i64 792
  %53 = getelementptr inbounds nuw i8, ptr %.val, i64 184
  br label %54

54:                                               ; preds = %54, %.lr.ph.i.i8.i
  %.022.i.i9.i = phi i64 [ 0, %.lr.ph.i.i8.i ], [ %63, %54 ]
  %.01621.i.i10.i = phi i64 [ 0, %.lr.ph.i.i8.i ], [ %61, %54 ]
  %.01720.i.i11.i = phi i64 [ %.023, %.lr.ph.i.i8.i ], [ %62, %54 ]
  %55 = getelementptr inbounds nuw [5 x i64], ptr %52, i64 0, i64 %.022.i.i9.i
  %56 = load i64, ptr %55, align 8, !tbaa !11
  %57 = sdiv i64 %.01720.i.i11.i, %56
  %58 = getelementptr inbounds nuw [5 x i64], ptr %53, i64 0, i64 %.022.i.i9.i
  %59 = load i64, ptr %58, align 8, !tbaa !11
  %60 = mul nsw i64 %59, %57
  %61 = add nsw i64 %60, %.01621.i.i10.i
  %62 = srem i64 %.01720.i.i11.i, %56
  %63 = add nuw nsw i64 %.022.i.i9.i, 1
  %exitcond.not.i.i12.i = icmp eq i64 %63, %50
  br i1 %exitcond.not.i.i12.i, label %_ZNK6open3d4core7Indexer11GetInputPtrIaEEPT_ll.exit13.thread3.i, label %54, !llvm.loop !747

_ZNK6open3d4core7Indexer11GetInputPtrIaEEPT_ll.exit13.thread3.i: ; preds = %54, %.preheader.i.i5.i, %44
  %.016.lcssa.i.sink.i7.i = phi i64 [ %.023, %44 ], [ 0, %.preheader.i.i5.i ], [ %61, %54 ]
  %64 = load ptr, ptr %45, align 8, !tbaa !88
  %65 = getelementptr inbounds i8, ptr %64, i64 %.016.lcssa.i.sink.i7.i
  br label %_ZNK6open3d4core7Indexer11GetInputPtrIaEEPT_ll.exit13.i.thread

_ZNK6open3d4core7Indexer11GetInputPtrIaEEPT_ll.exit13.i: ; preds = %18
  %.old = icmp slt i64 %.023, 0
  br i1 %.old, label %_ZNK6open3d4core7Indexer12GetOutputPtrIaEEPT_l.exit.i, label %_ZNK6open3d4core7Indexer11GetInputPtrIaEEPT_ll.exit13.i.thread

_ZNK6open3d4core7Indexer11GetInputPtrIaEEPT_ll.exit13.i.thread: ; preds = %_ZNK6open3d4core7Indexer11GetInputPtrIaEEPT_ll.exit.i.thread, %_ZNK6open3d4core7Indexer11GetInputPtrIaEEPT_ll.exit13.i, %_ZNK6open3d4core7Indexer11GetInputPtrIaEEPT_ll.exit13.thread3.i
  %.0.i12.i = phi ptr [ %43, %_ZNK6open3d4core7Indexer11GetInputPtrIaEEPT_ll.exit13.thread3.i ], [ null, %_ZNK6open3d4core7Indexer11GetInputPtrIaEEPT_ll.exit13.i ], [ %43, %_ZNK6open3d4core7Indexer11GetInputPtrIaEEPT_ll.exit.i.thread ]
  %.0.i45.i = phi ptr [ %65, %_ZNK6open3d4core7Indexer11GetInputPtrIaEEPT_ll.exit13.thread3.i ], [ null, %_ZNK6open3d4core7Indexer11GetInputPtrIaEEPT_ll.exit13.i ], [ null, %_ZNK6open3d4core7Indexer11GetInputPtrIaEEPT_ll.exit.i.thread ]
  %66 = getelementptr inbounds nuw i8, ptr %.val, i64 536
  %67 = getelementptr inbounds nuw i8, ptr %.val, i64 749
  %68 = load i8, ptr %67, align 1, !tbaa !75, !range !77, !noundef !78
  %69 = trunc nuw i8 %68 to i1
  br i1 %69, label %_ZNK6open3d4core7Indexer12GetOutputPtrIaEEPT_l.exit.sink.split.i, label %.preheader.i.i14.i

.preheader.i.i14.i:                               ; preds = %_ZNK6open3d4core7Indexer11GetInputPtrIaEEPT_ll.exit13.i.thread
  %70 = getelementptr inbounds nuw i8, ptr %.val, i64 832
  %71 = load i64, ptr %70, align 8, !tbaa !85
  %72 = icmp sgt i64 %71, 0
  br i1 %72, label %.lr.ph.i.i15.i, label %_ZNK6open3d4core7Indexer12GetOutputPtrIaEEPT_l.exit.sink.split.i

.lr.ph.i.i15.i:                                   ; preds = %.preheader.i.i14.i
  %73 = getelementptr inbounds nuw i8, ptr %.val, i64 792
  %74 = getelementptr inbounds nuw i8, ptr %.val, i64 600
  br label %75

75:                                               ; preds = %75, %.lr.ph.i.i15.i
  %.022.i.i16.i = phi i64 [ 0, %.lr.ph.i.i15.i ], [ %84, %75 ]
  %.01621.i.i17.i = phi i64 [ 0, %.lr.ph.i.i15.i ], [ %82, %75 ]
  %.01720.i.i18.i = phi i64 [ %.023, %.lr.ph.i.i15.i ], [ %83, %75 ]
  %76 = getelementptr inbounds nuw [5 x i64], ptr %73, i64 0, i64 %.022.i.i16.i
  %77 = load i64, ptr %76, align 8, !tbaa !11
  %78 = sdiv i64 %.01720.i.i18.i, %77
  %79 = getelementptr inbounds nuw [5 x i64], ptr %74, i64 0, i64 %.022.i.i16.i
  %80 = load i64, ptr %79, align 8, !tbaa !11
  %81 = mul nsw i64 %80, %78
  %82 = add nsw i64 %81, %.01621.i.i17.i
  %83 = srem i64 %.01720.i.i18.i, %77
  %84 = add nuw nsw i64 %.022.i.i16.i, 1
  %exitcond.not.i.i19.i = icmp eq i64 %84, %71
  br i1 %exitcond.not.i.i19.i, label %_ZNK6open3d4core7Indexer12GetOutputPtrIaEEPT_l.exit.sink.split.i, label %75, !llvm.loop !747

_ZNK6open3d4core7Indexer12GetOutputPtrIaEEPT_l.exit.sink.split.i: ; preds = %75, %.preheader.i.i14.i, %_ZNK6open3d4core7Indexer11GetInputPtrIaEEPT_ll.exit13.i.thread
  %.sink17.i = phi i64 [ %.023, %_ZNK6open3d4core7Indexer11GetInputPtrIaEEPT_ll.exit13.i.thread ], [ 0, %.preheader.i.i14.i ], [ %82, %75 ]
  %85 = load ptr, ptr %66, align 8, !tbaa !88
  %86 = getelementptr inbounds i8, ptr %85, i64 %.sink17.i
  br label %_ZNK6open3d4core7Indexer12GetOutputPtrIaEEPT_l.exit.i

_ZNK6open3d4core7Indexer12GetOutputPtrIaEEPT_l.exit.i: ; preds = %20, %_ZNK6open3d4core7Indexer12GetOutputPtrIaEEPT_l.exit.sink.split.i, %_ZNK6open3d4core7Indexer11GetInputPtrIaEEPT_ll.exit13.i
  %.0.i13.i = phi ptr [ null, %_ZNK6open3d4core7Indexer11GetInputPtrIaEEPT_ll.exit13.i ], [ %.0.i12.i, %_ZNK6open3d4core7Indexer12GetOutputPtrIaEEPT_l.exit.sink.split.i ], [ null, %20 ]
  %.0.i42.i = phi ptr [ null, %_ZNK6open3d4core7Indexer11GetInputPtrIaEEPT_ll.exit13.i ], [ %.0.i45.i, %_ZNK6open3d4core7Indexer12GetOutputPtrIaEEPT_l.exit.sink.split.i ], [ null, %20 ]
  %.018.i.i.i = phi ptr [ null, %_ZNK6open3d4core7Indexer11GetInputPtrIaEEPT_ll.exit13.i ], [ %86, %_ZNK6open3d4core7Indexer12GetOutputPtrIaEEPT_l.exit.sink.split.i ], [ null, %20 ]
  invoke void %.val13(ptr noundef %.0.i13.i, ptr noundef %.0.i42.i, ptr noundef %.018.i.i.i)
          to label %_ZZN6open3d4core6kernelL20LaunchBinaryEWKernelIaaFvPKvS4_PvEEEvRKNS0_7IndexerERKT1_ENKUllE_clEl.exit unwind label %90

_ZZN6open3d4core6kernelL20LaunchBinaryEWKernelIaaFvPKvS4_PvEEEvRKNS0_7IndexerERKT1_ENKUllE_clEl.exit: ; preds = %_ZNK6open3d4core7Indexer12GetOutputPtrIaEEPT_l.exit.i
  %87 = add nsw i64 %.023, 1
  %88 = load i64, ptr %6, align 8, !tbaa !11
  %.not.not = icmp slt i64 %.023, %88
  br i1 %.not.not, label %18, label %._crit_edge

._crit_edge:                                      ; preds = %_ZZN6open3d4core6kernelL20LaunchBinaryEWKernelIaaFvPKvS4_PvEEEvRKNS0_7IndexerERKT1_ENKUllE_clEl.exit, %11
  call void @__kmpc_for_static_fini(ptr nonnull @1, i32 %13)
  call void @llvm.lifetime.end.p0(i64 4, ptr nonnull %8) #17
  call void @llvm.lifetime.end.p0(i64 8, ptr nonnull %7) #17
  call void @llvm.lifetime.end.p0(i64 8, ptr nonnull %6) #17
  call void @llvm.lifetime.end.p0(i64 8, ptr nonnull %5) #17
  br label %89

89:                                               ; preds = %._crit_edge, %4
  ret void

90:                                               ; preds = %_ZNK6open3d4core7Indexer12GetOutputPtrIaEEPT_l.exit.i
  %91 = landingpad { ptr, i32 }
          catch ptr null
  %92 = extractvalue { ptr, i32 } %91, 0
  call void @__clang_call_terminate(ptr %92) #35
  unreachable
}